Certificate:
    Data:
        Version: 3 (0x2)
        Serial Number: 4129 (0x1021)
        Signature Algorithm: sha256WithRSAEncryption
        Issuer: C=US, ST=California, L=Santa Clara, O=Wi-Fi Alliance, CN=WFA Root Certificate/emailAddress=support@wi-fi.org
        Validity
            Not Before: Apr 15 01:48:04 2013 GMT
            Not After : Apr 13 01:48:04 2023 GMT
        Subject: C=US, ST=California, O=Wi-Fi Alliance, CN=AAA Server Certificate IDB/emailAddress=support@wi-fi.or
        Subject Public Key Info:
            Public Key Algorithm: rsaEncryption
            RSA Public Key: (2048 bit)
                Modulus (2048 bit):
                    00:c8:21:42:46:6c:b5:84:d2:69:65:51:4a:e5:50:
                    14:20:b4:b4:ba:4a:c7:5c:09:52:8f:a1:10:f6:29:
                    92:ba:59:29:d6:cd:6f:b4:dc:34:88:fd:19:6f:aa:
                    35:1b:e7:6e:31:ea:30:50:c7:b5:5b:0f:78:d5:70:
                    57:41:a9:91:a3:91:e7:ce:e4:34:25:ed:a0:70:97:
                    55:fc:2c:45:49:93:ce:19:cf:16:56:74:08:5c:2f:
                    ec:9d:82:c7:65:fe:32:52:98:31:4e:68:75:db:02:
                    48:46:0c:bc:a3:c7:74:62:33:78:38:b4:1e:45:95:
                    52:4d:6e:33:ce:34:42:42:aa:d1:42:39:f0:6d:10:
                    61:2f:1c:0c:59:52:be:5b:aa:c6:ec:9b:5f:ee:b1:
                    35:bb:d8:2b:19:b8:9c:53:2b:0f:b4:f4:27:fc:1f:
                    d2:9b:d1:17:d3:2e:39:85:31:0b:0b:82:58:07:e7:
                    ef:87:1f:8c:ba:cc:a8:b5:cb:37:f6:08:f2:c6:fe:
                    b8:a2:e9:97:5c:66:17:f9:87:ee:3f:fa:96:6b:43:
                    06:17:14:58:f0:4b:2f:a2:98:4f:4e:17:0e:1f:b2:
                    5e:b8:51:9f:82:e4:43:7b:97:73:5d:89:1a:27:81:
                    d7:13:34:38:d4:cb:d7:74:99:d7:e8:92:e2:18:f9:
                    8f:4b
                Exponent: 65537 (0x10001)
        X509v3 extensions:
            X509v3 Basic Constraints: critical
                CA:FALSE, pathlen:0
            X509v3 Key Usage: 
                Digital Signature, Non Repudiation, Key Encipherment
            X509v3 Subject Alternative Name: 
                DNS:wi-fi.org
            X509v3 Extended Key Usage: 
                TLS Web Server Authentication
            X509v3 Subject Key Identifier: 
                9C:C1:9C:EF:10:08:AA:57:04:49:42:B2:CB:5D:0E:E0:0C:CB:FC:30
            X509v3 Authority Key Identifier: 
                keyid:0B:03:C2:3E:54:A2:28:BD:3E:49:DE:72:F1:5F:8E:AB:0E:97:67:82

            1.3.6.1.4.1.40808.1.1.1: 
                ..ENGWi-Fi Alliance OSU
            1.3.6.1.5.5.7.1.12: 
                0.....0.....0..0..0....image/png0Q0O0...`.H.e.....@D4474A272BB0D0182DB9AD7C77F3BCA4C1361E8ACE2ECC209B7C25BBDC761D100N.Lhttp://www.wi-fi.org/sites/default/files/uploads/WFA_CERTIFIED_3D_Web_LR.png
    Signature Algorithm: sha256WithRSAEncryption
        82:40:c6:93:f9:b9:03:30:c7:d2:8c:7a:65:eb:67:c8:44:7c:
        56:c1:dc:8f:06:8e:e8:b5:0f:86:22:b4:a5:bb:ef:4d:d8:fe:
        e7:ee:1c:24:19:0f:bb:bd:be:88:79:9f:c7:4e:25:9f:25:78:
        3e:9c:c3:05:f8:0d:47:1b:11:00:46:30:17:68:ed:51:7a:7c:
        c0:ea:0c:7d:76:fd:d7:1c:a2:62:c2:e4:e4:fd:9c:b4:fb:f2:
        a8:02:4d:e5:9f:cb:60:96:1c:4f:e3:c2:d1:b8:9d:99:f9:b8:
        b0:ed:ac:85:e8:62:35:44:fa:c2:ca:ae:41:97:c7:b9:8e:2a:
        8b:71:9e:56:0b:3f:56:e9:7f:9e:da:a0:05:4d:02:ea:0d:05:
        51:7b:f6:4c:23:40:12:bd:41:be:b4:ce:55:c5:0c:96:6c:45:
        a3:3e:30:8d:fa:e4:a8:c4:dc:59:fc:a2:14:fd:b8:ae:85:d3:
        8f:2f:1a:06:b5:d6:64:ac:3e:aa:1e:fe:a3:59:db:d6:66:cd:
        01:8e:d1:a4:66:39:ae:b2:0f:14:c7:16:6f:c7:d7:35:cd:04:
        91:e1:b5:28:5c:d9:a4:54:6b:37:98:ae:76:a6:70:ba:e5:cc:
        c7:84:8c:c7:8f:96:46:43:c6:94:0a:54:26:c0:af:f0:0b:57:
        70:4e:8c:f5
-----BEGIN CERTIFICATE-----
MIIFGzCCBAOgAwIBAgICECEwDQYJKoZIhvcNAQELBQAwgZIxCzAJBgNVBAYTAlVT
MRMwEQYDVQQIDApDYWxpZm9ybmlhMRQwEgYDVQQHDAtTYW50YSBDbGFyYTEXMBUG
A1UECgwOV2ktRmkgQWxsaWFuY2UxHTAbBgNVBAMMFFdGQSBSb290IENlcnRpZmlj
YXRlMSAwHgYJKoZIhvcNAQkBFhFzdXBwb3J0QHdpLWZpLm9yZzAeFw0xMzA0MTUw
MTQ4MDRaFw0yMzA0MTMwMTQ4MDRaMIGBMQswCQYDVQQGEwJVUzETMBEGA1UECAwK
Q2FsaWZvcm5pYTEXMBUGA1UECgwOV2ktRmkgQWxsaWFuY2UxIzAhBgNVBAMMGkFB
QSBTZXJ2ZXIgQ2VydGlmaWNhdGUgSURCMR8wHQYJKoZIhvcNAQkBFhBzdXBwb3J0
QHdpLWZpLm9yMIIBIjANBgkqhkiG9w0BAQEFAAOCAQ8AMIIBCgKCAQEAyCFCRmy1
hNJpZVFK5VAUILS0ukrHXAlSj6EQ9imSulkp1s1vtNw0iP0Zb6o1G+duMeowUMe1
Ww941XBXQamRo5HnzuQ0Je2gcJdV/CxFSZPOGc8WVnQIXC/snYLHZf4yUpgxTmh1
2wJIRgy8o8d0YjN4OLQeRZVSTW4zzjRCQqrRQjnwbRBhLxwMWVK+W6rG7Jtf7rE1
u9grGbicUysPtPQn/B/Sm9EX0y45hTELC4JYB+fvhx+Musyotcs39gjyxv64oumX
XGYX+YfuP/qWa0MGFxRY8EsvophPThcOH7JeuFGfguRDe5dzXYkaJ4HXEzQ41MvX
dJnX6JLiGPmPSwIDAQABo4IBiDCCAYQwDwYDVR0TAQH/BAUwAwIBADALBgNVHQ8E
BAMCBeAwFAYDVR0RBA0wC4IJd2ktZmkub3JnMBMGA1UdJQQMMAoGCCsGAQUFBwMB
MB0GA1UdDgQWBBScwZzvEAiqVwRJQrLLXQ7gDMv8MDAfBgNVHSMEGDAWgBQLA8I+
VKIovT5J3nLxX46rDpdngjAmBgsrBgEEAYK+aAEBAQQXDBVFTkdXaS1GaSBBbGxp
YW5jZSBPU1UwgdAGCCsGAQUFBwEMBIHDMIHAoIG9MIG6oIG3MIG0MIGxMIGuFglp
bWFnZS9wbmcwUTBPMAsGCWCGSAFlAwQCAQRARDQ0NzRBMjcyQkIwRDAxODJEQjlB
RDdDNzdGM0JDQTRDMTM2MUU4QUNFMkVDQzIwOUI3QzI1QkJEQzc2MUQxMDBOFkxo
dHRwOi8vd3d3LndpLWZpLm9yZy9zaXRlcy9kZWZhdWx0L2ZpbGVzL3VwbG9hZHMv
V0ZBX0NFUlRJRklFRF8zRF9XZWJfTFIucG5nMA0GCSqGSIb3DQEBCwUAA4IBAQCC
QMaT+bkDMMfSjHpl62fIRHxWwdyPBo7otQ+GIrSlu+9N2P7n7hwkGQ+7vb6IeZ/H
TiWfJXg+nMMF+A1HGxEARjAXaO1RenzA6gx9dv3XHKJiwuTk/Zy0+/KoAk3ln8tg
lhxP48LRuJ2Z+biw7ayF6GI1RPrCyq5Bl8e5jiqLcZ5WCz9W6X+e2qAFTQLqDQVR
e/ZMI0ASvUG+tM5VxQyWbEWjPjCN+uSoxNxZ/KIU/biuhdOPLxoGtdZkrD6qHv6j
WdvWZs0BjtGkZjmusg8UxxZvx9c1zQSR4bUoXNmkVGs3mK52pnC65czHhIzHj5ZG
Q8aUClQmwK/wC1dwToz1
-----END CERTIFICATE-----
